Certificate:
    Data:
        Version: 3 (0x2)
        Serial Number: 16188405585357063733 (0xe0a8c51c2b284635)
    Signature Algorithm: sha1WithRSAEncryption
        Issuer: C=US, ST=Missouri, O=Siri Server, CN=SiriServer
        Validity
            Not Before: Aug 18 15:01:44 2017 GMT
            Not After : Aug 17 15:01:44 2020 GMT
        Subject: C=US, ST=Missouri, O=Siri Server, CN=SiriServer
        Subject Public Key Info:
            Public Key Algorithm: rsaEncryption
                Public-Key: (1024 bit)
                Modulus:
                    00:d7:78:00:cc:b6:64:18:d1:ab:10:aa:66:4f:a1:
                    dd:9a:47:3a:7e:96:3a:e6:87:d8:7f:dc:6f:d6:3e:
                    45:93:78:47:d0:0a:f7:5f:43:ec:73:a6:88:8c:0e:
                    07:81:64:26:3b:d0:ff:69:2a:8b:9e:8d:49:24:80:
                    98:98:99:fd:0f:54:d1:2d:7f:86:8e:d1:bf:d9:59:
                    66:86:d0:56:b7:f4:29:aa:28:5d:17:a3:da:93:b7:
                    10:1f:43:77:d1:dd:9d:7a:cc:49:ff:a1:c9:87:d1:
                    64:d3:5e:f9:81:e6:ad:0e:25:1b:26:51:b8:36:e4:
                    c4:7d:5d:6d:de:09:bf:f0:5d
                Exponent: 65537 (0x10001)
        X509v3 extensions:
            X509v3 Subject Key Identifier: 
                AD:71:E7:9C:E5:7A:7A:25:CF:03:4D:29:33:5C:B2:06:C6:38:6A:3A
            X509v3 Authority Key Identifier: 
                keyid:AD:71:E7:9C:E5:7A:7A:25:CF:03:4D:29:33:5C:B2:06:C6:38:6A:3A

            X509v3 Basic Constraints: 
                CA:TRUE
    Signature Algorithm: sha1WithRSAEncryption
         bf:0a:8b:b7:ed:37:0a:a4:ef:3a:02:c3:e7:11:9b:af:a0:6b:
         e0:4b:78:f1:d1:3e:7a:b5:ed:7d:88:d3:2c:ee:ca:d9:36:e0:
         d7:57:9d:c5:a9:33:8d:bd:b6:f7:a6:80:2f:36:23:41:db:b7:
         be:3b:2c:b7:d2:1f:10:8f:66:62:1f:63:ad:0c:0b:ab:49:1c:
         53:14:7d:94:6b:b4:b2:80:24:93:80:64:ee:58:9a:9b:30:41:
         a9:0f:24:3c:e2:cd:cb:94:a4:cf:c8:97:65:48:f3:5f:0c:29:
         5e:96:71:87:46:f9:27:d0:23:e1:ae:ab:28:b3:87:4e:b3:f3:
         a6:07
-----BEGIN CERTIFICATE-----
MIICZDCCAc2gAwIBAgIJAOCoxRwrKEY1MA0GCSqGSIb3DQEBBQUAMEsxCzAJBgNV
BAYTAlVTMREwDwYDVQQIDAhNaXNzb3VyaTEUMBIGA1UECgwLU2lyaSBTZXJ2ZXIx
EzARBgNVBAMMClNpcmlTZXJ2ZXIwHhcNMTcwODE4MTUwMTQ0WhcNMjAwODE3MTUw
MTQ0WjBLMQswCQYDVQQGEwJVUzERMA8GA1UECAwITWlzc291cmkxFDASBgNVBAoM
C1NpcmkgU2VydmVyMRMwEQYDVQQDDApTaXJpU2VydmVyMIGfMA0GCSqGSIb3DQEB
AQUAA4GNADCBiQKBgQDXeADMtmQY0asQqmZPod2aRzp+ljrmh9h/3G/WPkWTeEfQ
CvdfQ+xzpoiMDgeBZCY70P9pKouejUkkgJiYmf0PVNEtf4aO0b/ZWWaG0Fa39Cmq
KF0Xo9qTtxAfQ3fR3Z16zEn/ocmH0WTTXvmB5q0OJRsmUbg25MR9XW3eCb/wXQID
AQABo1AwTjAdBgNVHQ4EFgQUrXHnnOV6eiXPA00pM1yyBsY4ajowHwYDVR0jBBgw
FoAUrXHnnOV6eiXPA00pM1yyBsY4ajowDAYDVR0TBAUwAwEB/zANBgkqhkiG9w0B
AQUFAAOBgQC/Cou37TcKpO86AsPnEZuvoGvgS3jx0T56te19iNMs7srZNuDXV53F
qTONvbb3poAvNiNB27e+Oyy30h8Qj2ZiH2OtDAurSRxTFH2Ua7SygCSTgGTuWJqb
MEGpDyQ84s3LlKTPyJdlSPNfDClelnGHRvkn0CPhrqsos4dOs/OmBw==
-----END CERTIFICATE-----
